; Function Attrs: nounwind uwtable
define range(i32 -1, 1) i32 @H5S__get_diminfo_status_test(i64 noundef %0, ptr noundef writeonly captures(none) %1) local_unnamed_addr #0 {
  %3 = load i8, ptr @H5S_init_g, align 1, !tbaa !3, !range !7, !noundef !8
  %4 = trunc nuw i8 %3 to i1
  %5 = load i8, ptr @H5_libterm_g, align 1, !range !7
  %6 = trunc nuw i8 %5 to i1
  %7 = xor i1 %6, true
  %8 = select i1 %4, i1 true, i1 %7
  br i1 %8, label %9, label %20, !prof !9

9:                                                ; preds = %2
  %10 = tail call ptr @H5I_object_verify(i64 noundef %0, i32 noundef 4) #5
  %11 = icmp eq ptr %10, null
  br i1 %11, label %12, label %16

12:                                               ; preds = %9
  %13 = load i64, ptr @H5E_ARGS_g, align 8, !tbaa !10
  %14 = load i64, ptr @H5E_BADTYPE_g, align 8, !tbaa !10
  %15 = tail call i32 (ptr, ptr, i32, i64, i64, ptr, ...) @H5E_printf_stack(ptr noundef nonnull @.str, ptr noundef nonnull @__func__.H5S__get_diminfo_status_test, i32 noundef 139, i64 noundef %13, i64 noundef %14, ptr noundef nonnull @.str.1) #5
  br label %20

16:                                               ; preds = %9
  %17 = getelementptr inbounds nuw i8, ptr %10, i64 360
  %18 = load ptr, ptr %17, align 8, !tbaa !12
  %19 = load i32, ptr %18, align 8, !tbaa !13
  store i32 %19, ptr %1, align 4, !tbaa !19
  br label %20

20:                                               ; preds = %12, %16, %2
  %.0 = phi i32 [ -1, %12 ], [ 0, %16 ], [ 0, %2 ]
  ret i32 %.0
}